target datalayout = "e-m:e-p270:32:32-p271:32:32-p272:64:64-i64:64-i128:128-f80:128-n8:16:32:64-S128"
target triple = "x86_64-pc-linux-gnu"

%class.Effect = type <{ %"class.std::vector", %"class.std::vector", %"class.std::vector", i8, i8, [6 x i8] }>
%"class.std::vector" = type { %"struct.std::_Vector_base" }
%"struct.std::_Vector_base" = type { %"struct.std::_Vector_base<const Variable *, std::allocator<const Variable *>>::_Vector_impl" }
%"struct.std::_Vector_base<const Variable *, std::allocator<const Variable *>>::_Vector_impl" = type { %"struct.std::_Vector_base<const Variable *, std::allocator<const Variable *>>::_Vector_impl_data" }
%"struct.std::_Vector_base<const Variable *, std::allocator<const Variable *>>::_Vector_impl_data" = type { ptr, ptr, ptr }

; Function Attrs: mustprogress nounwind uwtable
define linkonce_odr dso_local noundef nonnull align 8 dereferenceable(8) ptr @_ZNKSt6vectorIPK8VariableSaIS2_EEixEm(ptr noundef nonnull align 8 dereferenceable(24) %0, i64 noundef %1) #6 comdat align 2 {
  %3 = alloca ptr, align 8
  %4 = alloca i64, align 8
  store ptr %0, ptr %3, align 8, !tbaa !20
  store i64 %1, ptr %4, align 8, !tbaa !22
  %5 = load ptr, ptr %3, align 8
  %6 = getelementptr inbounds nuw %"struct.std::_Vector_base", ptr %5, i32 0, i32 0
  %7 = getelementptr inbounds nuw %"struct.std::_Vector_base<const Variable *, std::allocator<const Variable *>>::_Vector_impl_data", ptr %6, i32 0, i32 0
  %8 = load ptr, ptr %7, align 8, !tbaa !24
  %9 = load i64, ptr %4, align 8, !tbaa !22
  %10 = getelementptr inbounds nuw ptr, ptr %8, i64 %9
  ret ptr %10
}

; Function Attrs: mustprogress nounwind uwtable
define linkonce_odr dso_local noundef i64 @_ZNKSt6vectorIPK8VariableSaIS2_EE4sizeEv(ptr noundef nonnull align 8 dereferenceable(24) %0) #6 comdat align 2 {
  %2 = alloca ptr, align 8
  store ptr %0, ptr %2, align 8, !tbaa !20
  %3 = load ptr, ptr %2, align 8
  %4 = getelementptr inbounds nuw %"struct.std::_Vector_base", ptr %3, i32 0, i32 0
  %5 = getelementptr inbounds nuw %"struct.std::_Vector_base<const Variable *, std::allocator<const Variable *>>::_Vector_impl_data", ptr %4, i32 0, i32 1
  %6 = load ptr, ptr %5, align 8, !tbaa !25
  %7 = getelementptr inbounds nuw %"struct.std::_Vector_base", ptr %3, i32 0, i32 0
  %8 = getelementptr inbounds nuw %"struct.std::_Vector_base<const Variable *, std::allocator<const Variable *>>::_Vector_impl_data", ptr %7, i32 0, i32 0
  %9 = load ptr, ptr %8, align 8, !tbaa !24
  %10 = ptrtoint ptr %6 to i64
  %11 = ptrtoint ptr %9 to i64
  %12 = sub i64 %10, %11
  %13 = sdiv exact i64 %12, 8
  ret i64 %13
}

; Function Attrs: mustprogress uwtable
define dso_local void @_ZN6Effect19add_external_effectERKS_(ptr noundef nonnull align 8 dereferenceable(74) %0, ptr noundef nonnull align 8 dereferenceable(74) %1) #4 align 2 {
  %3 = alloca ptr, align 8
  %4 = alloca ptr, align 8
  %5 = alloca i64, align 8
  %6 = alloca i64, align 8
  store ptr %0, ptr %3, align 8, !tbaa !4
  store ptr %1, ptr %4, align 8, !tbaa !4
  %7 = load ptr, ptr %3, align 8
  %8 = load ptr, ptr %4, align 8, !tbaa !4
  %9 = icmp eq ptr %7, %8
  br i1 %9, label %10, label %11

10:                                               ; preds = %2
  br label %81

11:                                               ; preds = %2
  call void @llvm.lifetime.start.p0(i64 8, ptr %5) #3
  call void @llvm.lifetime.start.p0(i64 8, ptr %6) #3
  %12 = load ptr, ptr %4, align 8, !tbaa !4
  %13 = getelementptr inbounds nuw %class.Effect, ptr %12, i32 0, i32 0
  %14 = call noundef i64 @_ZNKSt6vectorIPK8VariableSaIS2_EE4sizeEv(ptr noundef nonnull align 8 dereferenceable(24) %13) #3
  store i64 %14, ptr %5, align 8, !tbaa !22
  store i64 0, ptr %6, align 8, !tbaa !22
  br label %15

15:                                               ; preds = %36, %11
  %16 = load i64, ptr %6, align 8, !tbaa !22
  %17 = load i64, ptr %5, align 8, !tbaa !22
  %18 = icmp ult i64 %16, %17
  br i1 %18, label %19, label %39

19:                                               ; preds = %15
  %20 = load ptr, ptr %4, align 8, !tbaa !4
  %21 = getelementptr inbounds nuw %class.Effect, ptr %20, i32 0, i32 0
  %22 = load i64, ptr %6, align 8, !tbaa !22
  %23 = call noundef nonnull align 8 dereferenceable(8) ptr @_ZNKSt6vectorIPK8VariableSaIS2_EEixEm(ptr noundef nonnull align 8 dereferenceable(24) %21, i64 noundef %22) #3
  %24 = load ptr, ptr %23, align 8, !tbaa !30
  %25 = load ptr, ptr %24, align 8, !tbaa !85
  %26 = getelementptr inbounds ptr, ptr %25, i64 2
  %27 = load ptr, ptr %26, align 8
  %28 = call noundef zeroext i1 %27(ptr noundef nonnull align 8 dereferenceable(200) %24)
  br i1 %28, label %29, label %35

29:                                               ; preds = %19
  %30 = load ptr, ptr %4, align 8, !tbaa !4
  %31 = getelementptr inbounds nuw %class.Effect, ptr %30, i32 0, i32 0
  %32 = load i64, ptr %6, align 8, !tbaa !22
  %33 = call noundef nonnull align 8 dereferenceable(8) ptr @_ZNKSt6vectorIPK8VariableSaIS2_EEixEm(ptr noundef nonnull align 8 dereferenceable(24) %31, i64 noundef %32) #3
  %34 = load ptr, ptr %33, align 8, !tbaa !30
  call void @_ZN6Effect8read_varEPK8Variable(ptr noundef nonnull align 8 dereferenceable(74) %7, ptr noundef %34)
  br label %35

35:                                               ; preds = %29, %19
  br label %36

36:                                               ; preds = %35
  %37 = load i64, ptr %6, align 8, !tbaa !22
  %38 = add i64 %37, 1
  store i64 %38, ptr %6, align 8, !tbaa !22
  br label %15, !llvm.loop !87

39:                                               ; preds = %15
  %40 = load ptr, ptr %4, align 8, !tbaa !4
  %41 = getelementptr inbounds nuw %class.Effect, ptr %40, i32 0, i32 1
  %42 = call noundef i64 @_ZNKSt6vectorIPK8VariableSaIS2_EE4sizeEv(ptr noundef nonnull align 8 dereferenceable(24) %41) #3
  store i64 %42, ptr %5, align 8, !tbaa !22
  store i64 0, ptr %6, align 8, !tbaa !22
  br label %43

43:                                               ; preds = %65, %39
  %44 = load i64, ptr %6, align 8, !tbaa !22
  %45 = load i64, ptr %5, align 8, !tbaa !22
  %46 = icmp ult i64 %44, %45
  br i1 %46, label %47, label %68

47:                                               ; preds = %43
  %48 = load ptr, ptr %4, align 8, !tbaa !4
  %49 = getelementptr inbounds nuw %class.Effect, ptr %48, i32 0, i32 1
  %50 = load i64, ptr %6, align 8, !tbaa !22
  %51 = call noundef nonnull align 8 dereferenceable(8) ptr @_ZNKSt6vectorIPK8VariableSaIS2_EEixEm(ptr noundef nonnull align 8 dereferenceable(24) %49, i64 noundef %50) #3
  %52 = load ptr, ptr %51, align 8, !tbaa !30
  %53 = load ptr, ptr %52, align 8, !tbaa !85
  %54 = getelementptr inbounds ptr, ptr %53, i64 2
  %55 = load ptr, ptr %54, align 8
  %56 = call noundef zeroext i1 %55(ptr noundef nonnull align 8 dereferenceable(200) %52)
  br i1 %56, label %57, label %64

57:                                               ; preds = %47
  %58 = load ptr, ptr %4, align 8, !tbaa !4
  %59 = getelementptr inbounds nuw %class.Effect, ptr %58, i32 0, i32 1
  %60 = load i64, ptr %6, align 8, !tbaa !22
  %61 = call noundef nonnull align 8 dereferenceable(8) ptr @_ZNKSt6vectorIPK8VariableSaIS2_EEixEm(ptr noundef nonnull align 8 dereferenceable(24) %59, i64 noundef %60) #3
  %62 = load ptr, ptr %61, align 8, !tbaa !30
  call void @_ZN6Effect9write_varEPK8Variable(ptr noundef nonnull align 8 dereferenceable(74) %7, ptr noundef %62)
  %63 = getelementptr inbounds nuw %class.Effect, ptr %7, i32 0, i32 3
  store i8 0, ptr %63, align 8, !tbaa !9
  br label %64

64:                                               ; preds = %57, %47
  br label %65

65:                                               ; preds = %64
  %66 = load i64, ptr %6, align 8, !tbaa !22
  %67 = add i64 %66, 1
  store i64 %67, ptr %6, align 8, !tbaa !22
  br label %43, !llvm.loop !88

68:                                               ; preds = %43
  %69 = load ptr, ptr %4, align 8, !tbaa !4
  %70 = getelementptr inbounds nuw %class.Effect, ptr %69, i32 0, i32 4
  %71 = load i8, ptr %70, align 1, !tbaa !17, !range !26, !noundef !27
  %72 = trunc i8 %71 to i1
  %73 = zext i1 %72 to i32
  %74 = getelementptr inbounds nuw %class.Effect, ptr %7, i32 0, i32 4
  %75 = load i8, ptr %74, align 1, !tbaa !17, !range !26, !noundef !27
  %76 = trunc i8 %75 to i1
  %77 = zext i1 %76 to i32
  %78 = and i32 %77, %73
  %79 = icmp ne i32 %78, 0
  %80 = zext i1 %79 to i8
  store i8 %80, ptr %74, align 1, !tbaa !17
  call void @llvm.lifetime.end.p0(i64 8, ptr %6) #3
  call void @llvm.lifetime.end.p0(i64 8, ptr %5) #3
  br label %81

81:                                               ; preds = %68, %10
  ret void
}