; Function Attrs: mustprogress uwtable
define dso_local void @_ZN6Effect19add_external_effectERKS_(ptr noundef nonnull align 8 captures(address) dereferenceable(74) %0, ptr noundef nonnull readonly align 8 captures(address) dereferenceable(74) %1) local_unnamed_addr #5 align 2 {
  %3 = icmp eq ptr %0, %1
  br i1 %3, label %53, label %4

4:                                                ; preds = %2
  %5 = getelementptr inbounds nuw i8, ptr %1, i64 8
  %6 = load ptr, ptr %5, align 8, !tbaa !16
  %7 = load ptr, ptr %1, align 8, !tbaa !17
  %.not = icmp eq ptr %6, %7
  br i1 %.not, label %._crit_edge, label %.lr.ph.preheader

.lr.ph.preheader:                                 ; preds = %4
  %8 = ptrtoint ptr %6 to i64
  %9 = ptrtoint ptr %7 to i64
  %10 = sub i64 %8, %9
  %11 = ashr exact i64 %10, 3
  %umax = tail call i64 @llvm.umax.i64(i64 %11, i64 1)
  br label %.lr.ph

.lr.ph:                                           ; preds = %.lr.ph.preheader, %23
  %.020 = phi i64 [ %24, %23 ], [ 0, %.lr.ph.preheader ]
  %12 = load ptr, ptr %1, align 8, !tbaa !17
  %13 = getelementptr inbounds nuw ptr, ptr %12, i64 %.020
  %14 = load ptr, ptr %13, align 8, !tbaa !23
  %15 = load ptr, ptr %14, align 8, !tbaa !77
  %16 = getelementptr inbounds nuw i8, ptr %15, i64 16
  %17 = load ptr, ptr %16, align 8
  %18 = tail call noundef zeroext i1 %17(ptr noundef nonnull align 8 dereferenceable(200) %14)
  br i1 %18, label %19, label %23

19:                                               ; preds = %.lr.ph
  %20 = load ptr, ptr %1, align 8, !tbaa !17
  %21 = getelementptr inbounds nuw ptr, ptr %20, i64 %.020
  %22 = load ptr, ptr %21, align 8, !tbaa !23
  tail call void @_ZN6Effect8read_varEPK8Variable(ptr noundef nonnull align 8 dereferenceable(74) %0, ptr noundef %22)
  br label %23

23:                                               ; preds = %.lr.ph, %19
  %24 = add nuw i64 %.020, 1
  %exitcond.not = icmp eq i64 %24, %umax
  br i1 %exitcond.not, label %._crit_edge, label %.lr.ph, !llvm.loop !79

._crit_edge:                                      ; preds = %23, %4
  %25 = getelementptr inbounds nuw i8, ptr %1, i64 24
  %26 = getelementptr inbounds nuw i8, ptr %1, i64 32
  %27 = load ptr, ptr %26, align 8, !tbaa !16
  %28 = load ptr, ptr %25, align 8, !tbaa !17
  %.not25 = icmp eq ptr %27, %28
  br i1 %.not25, label %._crit_edge24, label %.lr.ph23

.lr.ph23:                                         ; preds = %._crit_edge
  %29 = ptrtoint ptr %27 to i64
  %30 = ptrtoint ptr %28 to i64
  %31 = sub i64 %29, %30
  %32 = ashr exact i64 %31, 3
  %33 = getelementptr inbounds nuw i8, ptr %0, i64 72
  %umax26 = tail call i64 @llvm.umax.i64(i64 %32, i64 1)
  br label %34

34:                                               ; preds = %.lr.ph23, %46
  %.121 = phi i64 [ 0, %.lr.ph23 ], [ %47, %46 ]
  %35 = load ptr, ptr %25, align 8, !tbaa !17
  %36 = getelementptr inbounds nuw ptr, ptr %35, i64 %.121
  %37 = load ptr, ptr %36, align 8, !tbaa !23
  %38 = load ptr, ptr %37, align 8, !tbaa !77
  %39 = getelementptr inbounds nuw i8, ptr %38, i64 16
  %40 = load ptr, ptr %39, align 8
  %41 = tail call noundef zeroext i1 %40(ptr noundef nonnull align 8 dereferenceable(200) %37)
  br i1 %41, label %42, label %46

42:                                               ; preds = %34
  %43 = load ptr, ptr %25, align 8, !tbaa !17
  %44 = getelementptr inbounds nuw ptr, ptr %43, i64 %.121
  %45 = load ptr, ptr %44, align 8, !tbaa !23
  tail call void @_ZN6Effect9write_varEPK8Variable(ptr noundef nonnull align 8 dereferenceable(74) %0, ptr noundef %45)
  store i8 0, ptr %33, align 8, !tbaa !4
  br label %46

46:                                               ; preds = %34, %42
  %47 = add nuw i64 %.121, 1
  %exitcond27.not = icmp eq i64 %47, %umax26
  br i1 %exitcond27.not, label %._crit_edge24, label %34, !llvm.loop !80

._crit_edge24:                                    ; preds = %46, %._crit_edge
  %48 = getelementptr inbounds nuw i8, ptr %1, i64 73
  %49 = load i8, ptr %48, align 1, !tbaa !15, !range !21, !noundef !22
  %50 = getelementptr inbounds nuw i8, ptr %0, i64 73
  %51 = load i8, ptr %50, align 1, !tbaa !15, !range !21, !noundef !22
  %52 = and i8 %51, %49
  store i8 %52, ptr %50, align 1, !tbaa !15
  br label %53

53:                                               ; preds = %2, %._crit_edge24
  ret void
}